; Function Attrs: mustprogress uwtable
define internal void @_ZN7rocksdb12_GLOBAL__N_121ProtectionInfoUpdater7MergeCFEjRKNS_5SliceES4_(ptr noalias nocapture writeonly sret(%"class.rocksdb::Status") align 8 %agg.result, ptr nocapture noundef nonnull readonly align 8 dereferenceable(16) %this, i32 noundef %cf, ptr nocapture noundef nonnull readonly align 8 dereferenceable(16) %key, ptr nocapture noundef nonnull readonly align 8 dereferenceable(16) %val) unnamed_addr #2 align 2 personality ptr @__gxx_personality_v0 {
entry:
  %column_family_id.addr.i.i = alloca i32, align 4
  %op_type.addr.i.i = alloca i8, align 1
  %ref.tmp.i = alloca %"class.rocksdb::ProtectionInfoKVOC", align 8
  %0 = getelementptr inbounds i8, ptr %this, i64 8
  %this.val = load ptr, ptr %0, align 8
  %key.val = load ptr, ptr %key, align 8
  %1 = getelementptr inbounds i8, ptr %key, i64 8
  %key.val1 = load i64, ptr %1, align 8
  tail call void @llvm.experimental.noalias.scope.decl(metadata !242)
  call void @llvm.lifetime.start.p0(i64 8, ptr nonnull %ref.tmp.i)
  %tobool.not.i = icmp eq ptr %this.val, null
  br i1 %tobool.not.i, label %_ZN7rocksdb12_GLOBAL__N_121ProtectionInfoUpdater14UpdateProtInfoEjRKNS_5SliceES4_NS_9ValueTypeE.exit, label %if.then.i

if.then.i:                                        ; preds = %entry
  call void @llvm.lifetime.start.p0(i64 1, ptr nonnull %op_type.addr.i.i), !noalias !242
  store i8 2, ptr %op_type.addr.i.i, align 1, !noalias !242
  %call.i.i.i.i = tail call noundef i64 @_ZN7rocksdb6Hash64EPKcmm(ptr noundef %key.val, i64 noundef %key.val1, i64 noundef 0), !noalias !242
  %2 = load ptr, ptr %val, align 8, !noalias !242
  %size_.i.i4.i.i = getelementptr inbounds i8, ptr %val, i64 8
  %3 = load i64, ptr %size_.i.i4.i.i, align 8, !noalias !242
  %call.i.i5.i.i = tail call noundef i64 @_ZN7rocksdb6Hash64EPKcmm(ptr noundef %2, i64 noundef %3, i64 noundef -3275615069716884213), !noalias !242
  %xor4.i.i = xor i64 %call.i.i5.i.i, %call.i.i.i.i
  %call.i.i.i = call noundef i64 @_ZN7rocksdb6Hash64EPKcmm(ptr noundef nonnull %op_type.addr.i.i, i64 noundef 1, i64 noundef -6551230139433768426), !noalias !242
  %xor6.i.i = xor i64 %xor4.i.i, %call.i.i.i
  call void @llvm.lifetime.end.p0(i64 1, ptr nonnull %op_type.addr.i.i), !noalias !242
  call void @llvm.lifetime.start.p0(i64 4, ptr nonnull %column_family_id.addr.i.i), !noalias !242
  store i32 %cf, ptr %column_family_id.addr.i.i, align 4, !noalias !242
  %call.i.i1.i = call noundef i64 @_ZN7rocksdb6Hash64EPKcmm(ptr noundef nonnull %column_family_id.addr.i.i, i64 noundef 4, i64 noundef 5344283794842014764), !noalias !242
  %xor.i2.i = xor i64 %xor6.i.i, %call.i.i1.i
  call void @llvm.lifetime.end.p0(i64 4, ptr nonnull %column_family_id.addr.i.i), !noalias !242
  store i64 %xor.i2.i, ptr %ref.tmp.i, align 8, !noalias !242
  call void @_ZN7rocksdb10autovectorINS_18ProtectionInfoKVOCImEELm8EE12emplace_backIJS2_EEEvDpOT_(ptr noundef nonnull align 8 dereferenceable(104) %this.val, ptr noundef nonnull align 8 dereferenceable(8) %ref.tmp.i), !noalias !242
  br label %_ZN7rocksdb12_GLOBAL__N_121ProtectionInfoUpdater14UpdateProtInfoEjRKNS_5SliceES4_NS_9ValueTypeE.exit

_ZN7rocksdb12_GLOBAL__N_121ProtectionInfoUpdater14UpdateProtInfoEjRKNS_5SliceES4_NS_9ValueTypeE.exit: ; preds = %entry, %if.then.i
  %state_.i.i.i = getelementptr inbounds i8, ptr %agg.result, i64 8
  store ptr null, ptr %state_.i.i.i, align 8, !alias.scope !245
  call void @llvm.memset.p0.i64(ptr noundef nonnull align 8 dereferenceable(6) %agg.result, i8 0, i64 6, i1 false), !alias.scope !245
  call void @llvm.lifetime.end.p0(i64 8, ptr nonnull %ref.tmp.i)
  ret void
}